target datalayout = "e-m:e-p270:32:32-p271:32:32-p272:64:64-i64:64-i128:128-f80:128-n8:16:32:64-S128"
target triple = "x86_64-pc-linux-gnu"

%struct.addrinfo = type { i32, i32, i32, i32, i32, ptr, ptr, ptr }

@.str = private unnamed_addr constant [33 x i8] c"../openssl/crypto/bio/bio_addr.c\00", align 1

; Function Attrs: nounwind uwtable
define void @BIO_ADDRINFO_free(ptr noundef %0) #0 {
  %2 = alloca ptr, align 8
  %3 = alloca ptr, align 8
  store ptr %0, ptr %2, align 8, !tbaa !28
  %4 = load ptr, ptr %2, align 8, !tbaa !28
  %5 = icmp eq ptr %4, null
  br i1 %5, label %6, label %7

6:                                                ; preds = %1
  br label %27

7:                                                ; preds = %1
  %8 = load ptr, ptr %2, align 8, !tbaa !28
  %9 = getelementptr inbounds nuw %struct.addrinfo, ptr %8, i32 0, i32 1
  %10 = load i32, ptr %9, align 4, !tbaa !32
  %11 = icmp ne i32 %10, 1
  br i1 %11, label %12, label %14

12:                                               ; preds = %7
  %13 = load ptr, ptr %2, align 8, !tbaa !28
  call void @freeaddrinfo(ptr noundef %13) #9
  br label %27

14:                                               ; preds = %7
  br label %15

15:                                               ; preds = %18, %14
  %16 = load ptr, ptr %2, align 8, !tbaa !28
  %17 = icmp ne ptr %16, null
  br i1 %17, label %18, label %27

18:                                               ; preds = %15
  call void @llvm.lifetime.start.p0(i64 8, ptr %3) #9
  %19 = load ptr, ptr %2, align 8, !tbaa !28
  %20 = getelementptr inbounds nuw %struct.addrinfo, ptr %19, i32 0, i32 7
  %21 = load ptr, ptr %20, align 8, !tbaa !30
  store ptr %21, ptr %3, align 8, !tbaa !28
  %22 = load ptr, ptr %2, align 8, !tbaa !28
  %23 = getelementptr inbounds nuw %struct.addrinfo, ptr %22, i32 0, i32 5
  %24 = load ptr, ptr %23, align 8, !tbaa !36
  call void @CRYPTO_free(ptr noundef %24, ptr noundef @.str, i32 noundef 473)
  %25 = load ptr, ptr %2, align 8, !tbaa !28
  call void @CRYPTO_free(ptr noundef %25, ptr noundef @.str, i32 noundef 474)
  %26 = load ptr, ptr %3, align 8, !tbaa !28
  store ptr %26, ptr %2, align 8, !tbaa !28
  call void @llvm.lifetime.end.p0(i64 8, ptr %3) #9
  br label %15, !llvm.loop !37

27:                                               ; preds = %6, %12, %15
  ret void
}