; Function Attrs: nounwind uwtable
define void @BIO_ADDRINFO_free(ptr noundef %0) local_unnamed_addr #0 {
  %2 = icmp eq ptr %0, null
  br i1 %2, label %.loopexit, label %3

3:                                                ; preds = %1
  %4 = getelementptr inbounds nuw i8, ptr %0, i64 4
  %5 = load i32, ptr %4, align 4, !tbaa !21
  %.not = icmp eq i32 %5, 1
  br i1 %.not, label %.preheader, label %6

6:                                                ; preds = %3
  tail call void @freeaddrinfo(ptr noundef nonnull %0) #15
  br label %.loopexit

.preheader:                                       ; preds = %3, %.preheader
  %.010 = phi ptr [ %8, %.preheader ], [ %0, %3 ]
  %7 = getelementptr inbounds nuw i8, ptr %.010, i64 40
  %8 = load ptr, ptr %7, align 8, !tbaa !17
  %9 = getelementptr inbounds nuw i8, ptr %.010, i64 24
  %10 = load ptr, ptr %9, align 8, !tbaa !25
  tail call void @CRYPTO_free(ptr noundef %10, ptr noundef nonnull @.str, i32 noundef 473) #15
  tail call void @CRYPTO_free(ptr noundef nonnull %.010, ptr noundef nonnull @.str, i32 noundef 474) #15
  %.not9 = icmp eq ptr %8, null
  br i1 %.not9, label %.loopexit, label %.preheader, !llvm.loop !26

.loopexit:                                        ; preds = %.preheader, %1, %6
  ret void
}